target datalayout = "e-m:e-p270:32:32-p271:32:32-p272:64:64-i64:64-i128:128-f80:128-n8:16:32:64-S128"
target triple = "x86_64-pc-linux-gnu"

%struct.timeval = type { i64, i64 }
%union.pthread_mutex_t = type { %struct.__pthread_mutex_s }
%struct.__pthread_mutex_s = type { i32, i32, i32, i32, i32, i16, i16, %struct.__pthread_internal_list }
%struct.__pthread_internal_list = type { ptr, ptr }
%struct.event = type { %struct.event_callback, %union.anon.1, i32, ptr, %union.anon.3, i16, i16, %struct.timeval }
%struct.event_callback = type { %struct.anon.0, i16, i8, i8, %union.anon, ptr }
%struct.anon.0 = type { ptr, ptr }
%union.anon = type { ptr }
%union.anon.1 = type { %struct.anon.2 }
%struct.anon.2 = type { ptr, ptr }
%union.anon.3 = type { %struct.anon.4 }
%struct.anon.4 = type { %struct.anon.5, %struct.timeval }
%struct.anon.5 = type { ptr, ptr }
%struct.LIBEVENT_THREAD = type { i64, ptr, %struct.thread_notify, %struct.thread_notify, %union.pthread_mutex_t, %struct.iop_head_s, i32, i32, i32, %struct.thread_stats, [3 x %struct.io_queue_s], ptr, ptr, ptr, ptr, ptr, ptr, ptr, i32 }
%struct.thread_notify = type { %struct.event, i32 }
%struct.iop_head_s = type { ptr, ptr }
%struct.thread_stats = type { %union.pthread_mutex_t, i64, i64, i64, i64, i64, i64, i64, i64, i64, i64, i64, i64, i64, i64, i64, i64, i64, i64, i64, i64, i64, i64, i64, i64, i64, i64, i64, i64, i64, i64, [64 x %struct.slab_stats], [256 x i64], i64, i64, i64 }
%struct.slab_stats = type { i64, i64, i64, i64, i64, i64, i64, i64 }
%struct.io_queue_s = type { ptr, %struct.iop_head_s, ptr, i32 }

; Function Attrs: nounwind uwtable
define dso_local ptr @thread_io_queue_get(ptr noundef %0, i32 noundef %1) #0 {
  %3 = alloca ptr, align 8
  %4 = alloca ptr, align 8
  %5 = alloca i32, align 4
  %6 = alloca ptr, align 8
  %7 = alloca i32, align 4
  store ptr %0, ptr %4, align 8, !tbaa !68
  store i32 %1, ptr %5, align 4, !tbaa !8
  call void @llvm.lifetime.start.p0(i64 8, ptr %6) #15
  %8 = load ptr, ptr %4, align 8, !tbaa !68
  %9 = getelementptr inbounds nuw %struct.LIBEVENT_THREAD, ptr %8, i32 0, i32 10
  %10 = getelementptr inbounds [3 x %struct.io_queue_s], ptr %9, i64 0, i64 0
  store ptr %10, ptr %6, align 8, !tbaa !91
  br label %11

11:                                               ; preds = %24, %2
  %12 = load ptr, ptr %6, align 8, !tbaa !91
  %13 = getelementptr inbounds nuw %struct.io_queue_s, ptr %12, i32 0, i32 3
  %14 = load i32, ptr %13, align 8, !tbaa !93
  %15 = icmp ne i32 %14, 0
  br i1 %15, label %16, label %27

16:                                               ; preds = %11
  %17 = load ptr, ptr %6, align 8, !tbaa !91
  %18 = getelementptr inbounds nuw %struct.io_queue_s, ptr %17, i32 0, i32 3
  %19 = load i32, ptr %18, align 8, !tbaa !93
  %20 = load i32, ptr %5, align 4, !tbaa !8
  %21 = icmp eq i32 %19, %20
  br i1 %21, label %22, label %24

22:                                               ; preds = %16
  %23 = load ptr, ptr %6, align 8, !tbaa !91
  store ptr %23, ptr %3, align 8
  store i32 1, ptr %7, align 4
  br label %28

24:                                               ; preds = %16
  %25 = load ptr, ptr %6, align 8, !tbaa !91
  %26 = getelementptr inbounds nuw %struct.io_queue_s, ptr %25, i32 1
  store ptr %26, ptr %6, align 8, !tbaa !91
  br label %11, !llvm.loop !100

27:                                               ; preds = %11
  store ptr null, ptr %3, align 8
  store i32 1, ptr %7, align 4
  br label %28

28:                                               ; preds = %27, %22
  call void @llvm.lifetime.end.p0(i64 8, ptr %6) #15
  %29 = load ptr, ptr %3, align 8
  ret ptr %29
}