; Function Attrs: nofree norecurse nosync nounwind memory(argmem: read) uwtable
define dso_local ptr @thread_io_queue_get(ptr noundef readonly captures(ret: address, provenance) %0, i32 noundef %1) local_unnamed_addr #11 {
  %3 = getelementptr inbounds nuw i8, ptr %0, i64 6840
  %4 = load i32, ptr %3, align 8, !tbaa !96
  %.not8 = icmp eq i32 %4, 0
  br i1 %.not8, label %._crit_edge, label %.lr.ph.preheader

.lr.ph.preheader:                                 ; preds = %2
  %5 = getelementptr inbounds nuw i8, ptr %0, i64 6808
  br label %.lr.ph

.lr.ph:                                           ; preds = %.lr.ph.preheader, %8
  %6 = phi i32 [ %11, %8 ], [ %4, %.lr.ph.preheader ]
  %.09 = phi ptr [ %9, %8 ], [ %5, %.lr.ph.preheader ]
  %7 = icmp eq i32 %6, %1
  br i1 %7, label %._crit_edge, label %8

8:                                                ; preds = %.lr.ph
  %9 = getelementptr inbounds nuw i8, ptr %.09, i64 40
  %10 = getelementptr inbounds nuw i8, ptr %.09, i64 72
  %11 = load i32, ptr %10, align 8, !tbaa !96
  %.not = icmp eq i32 %11, 0
  br i1 %.not, label %._crit_edge, label %.lr.ph, !llvm.loop !135

._crit_edge:                                      ; preds = %.lr.ph, %8, %2
  %.06 = phi ptr [ null, %2 ], [ null, %8 ], [ %.09, %.lr.ph ]
  ret ptr %.06
}